; ModuleID = 'source-C-CXX/50/454.c'
source_filename = "source-C-CXX/50/454.c"
target datalayout = "e-m:e-p270:32:32-p271:32:32-p272:64:64-i64:64-f80:128-n8:16:32:64-S128"
target triple = "x86_64-pc-linux-gnu"

%struct._IO_FILE = type { i32, i8*, i8*, i8*, i8*, i8*, i8*, i8*, i8*, i8*, i8*, i8*, %struct._IO_marker*, %struct._IO_FILE*, i32, i32, i64, i16, i8, [1 x i8], i8*, i64, %struct._IO_codecvt*, %struct._IO_wide_data*, %struct._IO_FILE*, i8*, i64, i32, [20 x i8] }
%struct._IO_marker = type opaque
%struct._IO_codecvt = type opaque
%struct._IO_wide_data = type opaque

@.str = private unnamed_addr constant [3 x i8] c"%d\00", align 1
@.str.2 = private unnamed_addr constant [4 x i8] c"%d\0A\00", align 1
@stdin = external local_unnamed_addr global %struct._IO_FILE*, align 8
@str = private unnamed_addr constant [3 x i8] c"NO\00", align 1

; Function Attrs: nounwind sspstrong uwtable
define dso_local i32 @main() local_unnamed_addr #0 {
  %1 = alloca [1000 x i8], align 16
  %2 = alloca [1000 x [50 x i8]], align 16
  %3 = alloca [1000 x i32], align 16
  %4 = alloca i32, align 4
  %5 = getelementptr inbounds [1000 x i8], [1000 x i8]* %1, i64 0, i64 0
  call void @llvm.lifetime.start.p0i8(i64 1000, i8* nonnull %5) #9
  %6 = getelementptr inbounds [1000 x [50 x i8]], [1000 x [50 x i8]]* %2, i64 0, i64 0, i64 0
  call void @llvm.lifetime.start.p0i8(i64 50000, i8* nonnull %6) #9
  %7 = bitcast [1000 x i32]* %3 to i8*
  call void @llvm.lifetime.start.p0i8(i64 4000, i8* nonnull %7) #9
  call void @llvm.memset.p0i8.i64(i8* noundef nonnull align 16 dereferenceable(4000) %7, i8 0, i64 4000, i1 false)
  %8 = bitcast i32* %4 to i8*
  call void @llvm.lifetime.start.p0i8(i64 4, i8* nonnull %8) #9
  store i32 0, i32* %4, align 4, !tbaa !5
  %9 = call i32 (i8*, ...) @__isoc99_scanf(i8* getelementptr inbounds ([3 x i8], [3 x i8]* @.str, i64 0, i64 0), i32* nonnull %4)
  %10 = load %struct._IO_FILE*, %struct._IO_FILE** @stdin, align 8, !tbaa !9
  %11 = call i32 @getc(%struct._IO_FILE* %10) #9
  %12 = call i32 (i8*, ...) bitcast (i32 (...)* @gets to i32 (i8*, ...)*)(i8* nonnull %5) #9
  %13 = call i64 @strlen(i8* noundef nonnull %5) #10
  %14 = trunc i64 %13 to i32
  %15 = load i32, i32* %4, align 4, !tbaa !5
  %16 = sub i32 %14, %15
  %17 = sext i32 %15 to i64
  %18 = icmp slt i32 %16, 0
  br i1 %18, label %191, label %19

19:                                               ; preds = %0
  %20 = icmp sgt i32 %15, 0
  br i1 %20, label %30, label %21

21:                                               ; preds = %19
  %22 = add i32 %14, 1
  %23 = sub i32 %22, %15
  %24 = zext i32 %23 to i64
  %25 = add nsw i64 %24, -1
  %26 = and i64 %24, 3
  %27 = icmp ult i64 %25, 3
  br i1 %27, label %72, label %28

28:                                               ; preds = %21
  %29 = and i64 %24, 4294967292
  br label %52

30:                                               ; preds = %19
  %31 = zext i32 %15 to i64
  %32 = add i32 %14, 1
  %33 = sub i32 %32, %15
  %34 = zext i32 %33 to i64
  %35 = and i64 %34, 1
  %36 = icmp eq i32 %33, 1
  br i1 %36, label %65, label %37

37:                                               ; preds = %30
  %38 = and i64 %34, 4294967294
  br label %39

39:                                               ; preds = %39, %37
  %40 = phi i64 [ 0, %37 ], [ %49, %39 ]
  %41 = phi i64 [ %38, %37 ], [ %50, %39 ]
  %42 = getelementptr [1000 x [50 x i8]], [1000 x [50 x i8]]* %2, i64 0, i64 %40, i64 0
  %43 = getelementptr [1000 x i8], [1000 x i8]* %1, i64 0, i64 %40
  call void @llvm.memcpy.p0i8.p0i8.i64(i8* align 4 %42, i8* align 2 %43, i64 %31, i1 false)
  %44 = getelementptr inbounds [1000 x [50 x i8]], [1000 x [50 x i8]]* %2, i64 0, i64 %40, i64 %17
  store i8 0, i8* %44, align 1, !tbaa !11
  %45 = or i64 %40, 1
  %46 = getelementptr [1000 x [50 x i8]], [1000 x [50 x i8]]* %2, i64 0, i64 %45, i64 0
  %47 = getelementptr [1000 x i8], [1000 x i8]* %1, i64 0, i64 %45
  call void @llvm.memcpy.p0i8.p0i8.i64(i8* align 2 %46, i8* align 1 %47, i64 %31, i1 false)
  %48 = getelementptr inbounds [1000 x [50 x i8]], [1000 x [50 x i8]]* %2, i64 0, i64 %45, i64 %17
  store i8 0, i8* %48, align 1, !tbaa !11
  %49 = add nuw nsw i64 %40, 2
  %50 = add i64 %41, -2
  %51 = icmp eq i64 %50, 0
  br i1 %51, label %65, label %39, !llvm.loop !12

52:                                               ; preds = %52, %28
  %53 = phi i64 [ 0, %28 ], [ %62, %52 ]
  %54 = phi i64 [ %29, %28 ], [ %63, %52 ]
  %55 = getelementptr inbounds [1000 x [50 x i8]], [1000 x [50 x i8]]* %2, i64 0, i64 %53, i64 %17
  store i8 0, i8* %55, align 1, !tbaa !11
  %56 = or i64 %53, 1
  %57 = getelementptr inbounds [1000 x [50 x i8]], [1000 x [50 x i8]]* %2, i64 0, i64 %56, i64 %17
  store i8 0, i8* %57, align 1, !tbaa !11
  %58 = or i64 %53, 2
  %59 = getelementptr inbounds [1000 x [50 x i8]], [1000 x [50 x i8]]* %2, i64 0, i64 %58, i64 %17
  store i8 0, i8* %59, align 1, !tbaa !11
  %60 = or i64 %53, 3
  %61 = getelementptr inbounds [1000 x [50 x i8]], [1000 x [50 x i8]]* %2, i64 0, i64 %60, i64 %17
  store i8 0, i8* %61, align 1, !tbaa !11
  %62 = add nuw nsw i64 %53, 4
  %63 = add i64 %54, -4
  %64 = icmp eq i64 %63, 0
  br i1 %64, label %72, label %52, !llvm.loop !12

65:                                               ; preds = %39, %30
  %66 = phi i64 [ 0, %30 ], [ %49, %39 ]
  %67 = icmp eq i64 %35, 0
  br i1 %67, label %82, label %68

68:                                               ; preds = %65
  %69 = getelementptr [1000 x [50 x i8]], [1000 x [50 x i8]]* %2, i64 0, i64 %66, i64 0
  %70 = getelementptr [1000 x i8], [1000 x i8]* %1, i64 0, i64 %66
  call void @llvm.memcpy.p0i8.p0i8.i64(i8* align 2 %69, i8* align 1 %70, i64 %31, i1 false)
  %71 = getelementptr inbounds [1000 x [50 x i8]], [1000 x [50 x i8]]* %2, i64 0, i64 %66, i64 %17
  store i8 0, i8* %71, align 1, !tbaa !11
  br label %82

72:                                               ; preds = %52, %21
  %73 = phi i64 [ 0, %21 ], [ %62, %52 ]
  %74 = icmp eq i64 %26, 0
  br i1 %74, label %82, label %75

75:                                               ; preds = %72, %75
  %76 = phi i64 [ %79, %75 ], [ %73, %72 ]
  %77 = phi i64 [ %80, %75 ], [ %26, %72 ]
  %78 = getelementptr inbounds [1000 x [50 x i8]], [1000 x [50 x i8]]* %2, i64 0, i64 %76, i64 %17
  store i8 0, i8* %78, align 1, !tbaa !11
  %79 = add nuw nsw i64 %76, 1
  %80 = add i64 %77, -1
  %81 = icmp eq i64 %80, 0
  br i1 %81, label %82, label %75, !llvm.loop !14

82:                                               ; preds = %72, %75, %68, %65
  br i1 %18, label %191, label %83

83:                                               ; preds = %82
  %84 = zext i32 %16 to i64
  %85 = add i32 %14, 1
  %86 = sub i32 %85, %15
  %87 = zext i32 %86 to i64
  br label %88

88:                                               ; preds = %174, %83
  %89 = phi i64 [ 0, %83 ], [ %175, %174 ]
  %90 = getelementptr inbounds [1000 x [50 x i8]], [1000 x [50 x i8]]* %2, i64 0, i64 %89, i64 0
  %91 = getelementptr inbounds [1000 x i32], [1000 x i32]* %3, i64 0, i64 %89
  br label %163

92:                                               ; preds = %174
  %93 = icmp sgt i32 %16, 0
  br i1 %93, label %94, label %191

94:                                               ; preds = %92
  %95 = zext i32 %16 to i64
  %96 = icmp ult i32 %16, 8
  br i1 %96, label %160, label %97

97:                                               ; preds = %94
  %98 = and i64 %95, 4294967288
  %99 = add nsw i64 %98, -8
  %100 = lshr exact i64 %99, 3
  %101 = add nuw nsw i64 %100, 1
  %102 = and i64 %101, 1
  %103 = icmp eq i64 %99, 0
  br i1 %103, label %135, label %104

104:                                              ; preds = %97
  %105 = and i64 %101, 4611686018427387902
  br label %106

106:                                              ; preds = %106, %104
  %107 = phi i64 [ 0, %104 ], [ %132, %106 ]
  %108 = phi <4 x i32> [ zeroinitializer, %104 ], [ %130, %106 ]
  %109 = phi <4 x i32> [ zeroinitializer, %104 ], [ %131, %106 ]
  %110 = phi i64 [ %105, %104 ], [ %133, %106 ]
  %111 = getelementptr inbounds [1000 x i32], [1000 x i32]* %3, i64 0, i64 %107
  %112 = bitcast i32* %111 to <4 x i32>*
  %113 = load <4 x i32>, <4 x i32>* %112, align 16, !tbaa !5
  %114 = getelementptr inbounds i32, i32* %111, i64 4
  %115 = bitcast i32* %114 to <4 x i32>*
  %116 = load <4 x i32>, <4 x i32>* %115, align 16, !tbaa !5
  %117 = icmp sgt <4 x i32> %113, %108
  %118 = icmp sgt <4 x i32> %116, %109
  %119 = select <4 x i1> %117, <4 x i32> %113, <4 x i32> %108
  %120 = select <4 x i1> %118, <4 x i32> %116, <4 x i32> %109
  %121 = or i64 %107, 8
  %122 = getelementptr inbounds [1000 x i32], [1000 x i32]* %3, i64 0, i64 %121
  %123 = bitcast i32* %122 to <4 x i32>*
  %124 = load <4 x i32>, <4 x i32>* %123, align 16, !tbaa !5
  %125 = getelementptr inbounds i32, i32* %122, i64 4
  %126 = bitcast i32* %125 to <4 x i32>*
  %127 = load <4 x i32>, <4 x i32>* %126, align 16, !tbaa !5
  %128 = icmp sgt <4 x i32> %124, %119
  %129 = icmp sgt <4 x i32> %127, %120
  %130 = select <4 x i1> %128, <4 x i32> %124, <4 x i32> %119
  %131 = select <4 x i1> %129, <4 x i32> %127, <4 x i32> %120
  %132 = add nuw i64 %107, 16
  %133 = add i64 %110, -2
  %134 = icmp eq i64 %133, 0
  br i1 %134, label %135, label %106, !llvm.loop !16

135:                                              ; preds = %106, %97
  %136 = phi <4 x i32> [ undef, %97 ], [ %130, %106 ]
  %137 = phi <4 x i32> [ undef, %97 ], [ %131, %106 ]
  %138 = phi i64 [ 0, %97 ], [ %132, %106 ]
  %139 = phi <4 x i32> [ zeroinitializer, %97 ], [ %130, %106 ]
  %140 = phi <4 x i32> [ zeroinitializer, %97 ], [ %131, %106 ]
  %141 = icmp eq i64 %102, 0
  br i1 %141, label %153, label %142

142:                                              ; preds = %135
  %143 = getelementptr inbounds [1000 x i32], [1000 x i32]* %3, i64 0, i64 %138
  %144 = bitcast i32* %143 to <4 x i32>*
  %145 = load <4 x i32>, <4 x i32>* %144, align 16, !tbaa !5
  %146 = getelementptr inbounds i32, i32* %143, i64 4
  %147 = bitcast i32* %146 to <4 x i32>*
  %148 = load <4 x i32>, <4 x i32>* %147, align 16, !tbaa !5
  %149 = icmp sgt <4 x i32> %148, %140
  %150 = select <4 x i1> %149, <4 x i32> %148, <4 x i32> %140
  %151 = icmp sgt <4 x i32> %145, %139
  %152 = select <4 x i1> %151, <4 x i32> %145, <4 x i32> %139
  br label %153

153:                                              ; preds = %135, %142
  %154 = phi <4 x i32> [ %136, %135 ], [ %152, %142 ]
  %155 = phi <4 x i32> [ %137, %135 ], [ %150, %142 ]
  %156 = icmp sgt <4 x i32> %154, %155
  %157 = select <4 x i1> %156, <4 x i32> %154, <4 x i32> %155
  %158 = call i32 @llvm.vector.reduce.smax.v4i32(<4 x i32> %157)
  %159 = icmp eq i64 %98, %95
  br i1 %159, label %186, label %160

160:                                              ; preds = %94, %153
  %161 = phi i64 [ 0, %94 ], [ %98, %153 ]
  %162 = phi i32 [ 0, %94 ], [ %158, %153 ]
  br label %177

163:                                              ; preds = %88, %171
  %164 = phi i64 [ %89, %88 ], [ %172, %171 ]
  %165 = getelementptr inbounds [1000 x [50 x i8]], [1000 x [50 x i8]]* %2, i64 0, i64 %164, i64 0
  %166 = call i32 @strcmp(i8* noundef nonnull %90, i8* noundef nonnull %165) #10
  %167 = icmp eq i32 %166, 0
  br i1 %167, label %168, label %171

168:                                              ; preds = %163
  %169 = load i32, i32* %91, align 4, !tbaa !5
  %170 = add nsw i32 %169, 1
  store i32 %170, i32* %91, align 4, !tbaa !5
  br label %171

171:                                              ; preds = %163, %168
  %172 = add nuw nsw i64 %164, 1
  %173 = icmp ult i64 %164, %84
  br i1 %173, label %163, label %174, !llvm.loop !18

174:                                              ; preds = %171
  %175 = add nuw nsw i64 %89, 1
  %176 = icmp eq i64 %175, %87
  br i1 %176, label %92, label %88, !llvm.loop !19

177:                                              ; preds = %160, %177
  %178 = phi i64 [ %184, %177 ], [ %161, %160 ]
  %179 = phi i32 [ %183, %177 ], [ %162, %160 ]
  %180 = getelementptr inbounds [1000 x i32], [1000 x i32]* %3, i64 0, i64 %178
  %181 = load i32, i32* %180, align 4, !tbaa !5
  %182 = icmp sgt i32 %181, %179
  %183 = select i1 %182, i32 %181, i32 %179
  %184 = add nuw nsw i64 %178, 1
  %185 = icmp eq i64 %184, %95
  br i1 %185, label %186, label %177, !llvm.loop !20

186:                                              ; preds = %177, %153
  %187 = phi i32 [ %158, %153 ], [ %183, %177 ]
  %188 = icmp eq i32 %187, 1
  br i1 %188, label %189, label %191

189:                                              ; preds = %186
  %190 = call i32 @puts(i8* nonnull dereferenceable(1) getelementptr inbounds ([3 x i8], [3 x i8]* @str, i64 0, i64 0))
  br label %212

191:                                              ; preds = %0, %82, %92, %186
  %192 = phi i32 [ %187, %186 ], [ 0, %92 ], [ 0, %82 ], [ 0, %0 ]
  %193 = call i32 (i8*, ...) @printf(i8* nonnull dereferenceable(1) getelementptr inbounds ([4 x i8], [4 x i8]* @.str.2, i64 0, i64 0), i32 %192)
  %194 = load i32, i32* %4, align 4, !tbaa !5
  %195 = icmp sgt i32 %194, %14
  br i1 %195, label %212, label %196

196:                                              ; preds = %191, %206
  %197 = phi i32 [ %207, %206 ], [ %194, %191 ]
  %198 = phi i64 [ %208, %206 ], [ 0, %191 ]
  %199 = getelementptr inbounds [1000 x i32], [1000 x i32]* %3, i64 0, i64 %198
  %200 = load i32, i32* %199, align 4, !tbaa !5
  %201 = icmp eq i32 %200, %192
  br i1 %201, label %202, label %206

202:                                              ; preds = %196
  %203 = getelementptr inbounds [1000 x [50 x i8]], [1000 x [50 x i8]]* %2, i64 0, i64 %198, i64 0
  %204 = call i32 @puts(i8* nonnull %203)
  %205 = load i32, i32* %4, align 4, !tbaa !5
  br label %206

206:                                              ; preds = %196, %202
  %207 = phi i32 [ %197, %196 ], [ %205, %202 ]
  %208 = add nuw nsw i64 %198, 1
  %209 = sub nsw i32 %14, %207
  %210 = sext i32 %209 to i64
  %211 = icmp slt i64 %198, %210
  br i1 %211, label %196, label %212, !llvm.loop !22

212:                                              ; preds = %206, %191, %189
  call void @llvm.lifetime.end.p0i8(i64 4, i8* nonnull %8) #9
  call void @llvm.lifetime.end.p0i8(i64 4000, i8* nonnull %7) #9
  call void @llvm.lifetime.end.p0i8(i64 50000, i8* nonnull %6) #9
  call void @llvm.lifetime.end.p0i8(i64 1000, i8* nonnull %5) #9
  ret i32 0
}

; Function Attrs: argmemonly mustprogress nofree nosync nounwind willreturn
declare void @llvm.lifetime.start.p0i8(i64 immarg, i8* nocapture) #1

; Function Attrs: argmemonly mustprogress nofree nounwind willreturn writeonly
declare void @llvm.memset.p0i8.i64(i8* nocapture writeonly, i8, i64, i1 immarg) #2

; Function Attrs: nofree nounwind
declare noundef i32 @__isoc99_scanf(i8* nocapture noundef readonly, ...) local_unnamed_addr #3

declare i32 @gets(...) local_unnamed_addr #4

; Function Attrs: argmemonly mustprogress nofree nounwind readonly willreturn
declare i64 @strlen(i8* nocapture) local_unnamed_addr #5

; Function Attrs: argmemonly mustprogress nofree nounwind readonly willreturn
declare i32 @strcmp(i8* nocapture, i8* nocapture) local_unnamed_addr #5

; Function Attrs: nofree nounwind
declare noundef i32 @printf(i8* nocapture noundef readonly, ...) local_unnamed_addr #3

; Function Attrs: argmemonly mustprogress nofree nosync nounwind willreturn
declare void @llvm.lifetime.end.p0i8(i64 immarg, i8* nocapture) #1

; Function Attrs: nofree nounwind
declare noundef i32 @getc(%struct._IO_FILE* nocapture noundef) local_unnamed_addr #3

; Function Attrs: nofree nounwind
declare noundef i32 @puts(i8* nocapture noundef readonly) local_unnamed_addr #6

; Function Attrs: argmemonly nofree nounwind willreturn
declare void @llvm.memcpy.p0i8.p0i8.i64(i8* noalias nocapture writeonly, i8* noalias nocapture readonly, i64, i1 immarg) #7

; Function Attrs: nofree nosync nounwind readnone willreturn
declare i32 @llvm.vector.reduce.smax.v4i32(<4 x i32>) #8


!llvm.module.flags = !{!0, !1, !2, !3}
!llvm.ident = !{!4}

!0 = !{i32 1, !"wchar_size", i32 4}
!1 = !{i32 7, !"PIC Level", i32 2}
!2 = !{i32 7, !"PIE Level", i32 2}
!3 = !{i32 7, !"uwtable", i32 1}
!4 = !{!"clang version 13.0.0"}
!5 = !{!6, !6, i64 0}
!6 = !{!"int", !7, i64 0}
!7 = !{!"omnipotent char", !8, i64 0}
!8 = !{!"Simple C/C++ TBAA"}
!9 = !{!10, !10, i64 0}
!10 = !{!"any pointer", !7, i64 0}
!11 = !{!7, !7, i64 0}
!12 = distinct !{!12, !13}
!13 = !{!"llvm.loop.mustprogress"}
!14 = distinct !{!14, !15}
!15 = !{!"llvm.loop.unroll.disable"}
!16 = distinct !{!16, !13, !17}
!17 = !{!"llvm.loop.isvectorized", i32 1}
!18 = distinct !{!18, !13}
!19 = distinct !{!19, !13}
!20 = distinct !{!20, !13, !21, !17}
!21 = !{!"llvm.loop.unroll.runtime.disable"}
!22 = distinct !{!22, !13}
